target datalayout = "e-m:e-p270:32:32-p271:32:32-p272:64:64-i64:64-i128:128-f80:128-n8:16:32:64-S128"
target triple = "x86_64-unknown-linux-gnu"

%"class.icu_75::AndConstraint" = type <{ ptr, i32, i32, i32, [4 x i8], ptr, i8, i8, [2 x i8], i32, ptr, i32, [4 x i8] }>

@_ZTVN6icu_7513AndConstraintE = unnamed_addr constant { [4 x ptr] } { [4 x ptr] [ptr null, ptr @_ZTIN6icu_7513AndConstraintE, ptr @_ZN6icu_7513AndConstraintD1Ev, ptr @_ZN6icu_7513AndConstraintD0Ev] }, align 8

; Function Attrs: mustprogress nounwind uwtable
define linkonce_odr void @_ZN6icu_7513AndConstraintC2Ev(ptr noundef nonnull align 8 dereferenceable(52) %this) unnamed_addr #0 comdat align 2 {
entry:
  %this.addr = alloca ptr, align 8
  store ptr %this, ptr %this.addr, align 8
  %this1 = load ptr, ptr %this.addr, align 8
  store ptr getelementptr inbounds ({ [4 x ptr] }, ptr @_ZTVN6icu_7513AndConstraintE, i32 0, i32 0, i32 2), ptr %this1, align 8
  %op = getelementptr inbounds %"class.icu_75::AndConstraint", ptr %this1, i32 0, i32 1
  store i32 0, ptr %op, align 8
  %opNum = getelementptr inbounds %"class.icu_75::AndConstraint", ptr %this1, i32 0, i32 2
  store i32 -1, ptr %opNum, align 4
  %value = getelementptr inbounds %"class.icu_75::AndConstraint", ptr %this1, i32 0, i32 3
  store i32 -1, ptr %value, align 8
  %rangeList = getelementptr inbounds %"class.icu_75::AndConstraint", ptr %this1, i32 0, i32 5
  store ptr null, ptr %rangeList, align 8
  %negated = getelementptr inbounds %"class.icu_75::AndConstraint", ptr %this1, i32 0, i32 6
  store i8 0, ptr %negated, align 8
  %integerOnly = getelementptr inbounds %"class.icu_75::AndConstraint", ptr %this1, i32 0, i32 7
  store i8 0, ptr %integerOnly, align 1
  %digitsType = getelementptr inbounds %"class.icu_75::AndConstraint", ptr %this1, i32 0, i32 9
  store i32 0, ptr %digitsType, align 4
  %next = getelementptr inbounds %"class.icu_75::AndConstraint", ptr %this1, i32 0, i32 10
  store ptr null, ptr %next, align 8
  %fInternalStatus = getelementptr inbounds %"class.icu_75::AndConstraint", ptr %this1, i32 0, i32 11
  store i32 0, ptr %fInternalStatus, align 8
  ret void
}

; Function Attrs: mustprogress nounwind uwtable
define internal noundef signext i8 @_ZL9U_FAILURE10UErrorCode(i32 noundef %code) #0 {
entry:
  %code.addr = alloca i32, align 4
  store i32 %code, ptr %code.addr, align 4
  %0 = load i32, ptr %code.addr, align 4
  %cmp = icmp sgt i32 %0, 0
  %conv = zext i1 %cmp to i8
  ret i8 %conv
}

; Function Attrs: mustprogress uwtable
define noundef ptr @_ZN6icu_7513AndConstraint3addER10UErrorCode(ptr noundef nonnull align 8 dereferenceable(52) %this, ptr noundef nonnull align 4 dereferenceable(4) %status) #1 align 2 {
entry:
  %retval = alloca ptr, align 8
  %this.addr = alloca ptr, align 8
  %status.addr = alloca ptr, align 8
  %saved-rvalue = alloca ptr, align 8
  %cleanup.cond = alloca i1, align 1
  store ptr %this, ptr %this.addr, align 8
  store ptr %status, ptr %status.addr, align 8
  %this1 = load ptr, ptr %this.addr, align 8
  %fInternalStatus = getelementptr inbounds %"class.icu_75::AndConstraint", ptr %this1, i32 0, i32 11
  %0 = load i32, ptr %fInternalStatus, align 8
  %call = call noundef signext i8 @_ZL9U_FAILURE10UErrorCode(i32 noundef %0)
  %tobool = icmp ne i8 %call, 0
  br i1 %tobool, label %if.then, label %if.end

if.then:                                          ; preds = %entry
  %fInternalStatus2 = getelementptr inbounds %"class.icu_75::AndConstraint", ptr %this1, i32 0, i32 11
  %1 = load i32, ptr %fInternalStatus2, align 8
  %2 = load ptr, ptr %status.addr, align 8
  store i32 %1, ptr %2, align 4
  store ptr null, ptr %retval, align 8
  br label %return

if.end:                                           ; preds = %entry
  %call3 = call noundef ptr @_ZN6icu_757UMemorynwEm(i64 noundef 56) #13
  %new.isnull = icmp eq ptr %call3, null
  store i1 false, ptr %cleanup.cond, align 1
  br i1 %new.isnull, label %new.cont, label %new.notnull

new.notnull:                                      ; preds = %if.end
  store ptr %call3, ptr %saved-rvalue, align 8
  store i1 true, ptr %cleanup.cond, align 1
  call void @llvm.memset.p0.i64(ptr align 8 %call3, i8 0, i64 56, i1 false)
  call void @_ZN6icu_7513AndConstraintC2Ev(ptr noundef nonnull align 8 dereferenceable(52) %call3) #13
  br label %new.cont

new.cont:                                         ; preds = %new.notnull, %if.end
  %3 = phi ptr [ %call3, %new.notnull ], [ null, %if.end ]
  %next = getelementptr inbounds %"class.icu_75::AndConstraint", ptr %this1, i32 0, i32 10
  store ptr %3, ptr %next, align 8
  %next4 = getelementptr inbounds %"class.icu_75::AndConstraint", ptr %this1, i32 0, i32 10
  %4 = load ptr, ptr %next4, align 8
  %cmp = icmp eq ptr %4, null
  br i1 %cmp, label %if.then5, label %if.end6

if.then5:                                         ; preds = %new.cont
  %5 = load ptr, ptr %status.addr, align 8
  store i32 7, ptr %5, align 4
  br label %if.end6

if.end6:                                          ; preds = %if.then5, %new.cont
  %next7 = getelementptr inbounds %"class.icu_75::AndConstraint", ptr %this1, i32 0, i32 10
  %6 = load ptr, ptr %next7, align 8
  store ptr %6, ptr %retval, align 8
  br label %return

return:                                           ; preds = %if.end6, %if.then
  %7 = load ptr, ptr %retval, align 8
  ret ptr %7
}