; Function Attrs: mustprogress nounwind uwtable
define noundef ptr @_ZN6icu_7513AndConstraint3addER10UErrorCode(ptr nocapture noundef nonnull align 8 dereferenceable(52) %this, ptr nocapture noundef nonnull writeonly align 4 dereferenceable(4) %status) local_unnamed_addr #0 align 2 {
entry:
  %fInternalStatus = getelementptr inbounds i8, ptr %this, i64 48
  %0 = load i32, ptr %fInternalStatus, align 8
  %cmp.i = icmp slt i32 %0, 1
  br i1 %cmp.i, label %if.end, label %if.then

if.then:                                          ; preds = %entry
  store i32 %0, ptr %status, align 4
  br label %return

if.end:                                           ; preds = %entry
  %call3 = tail call noundef ptr @_ZN6icu_757UMemorynwEm(i64 noundef 56) #25
  %new.isnull = icmp eq ptr %call3, null
  br i1 %new.isnull, label %if.then5, label %new.cont

new.cont:                                         ; preds = %if.end
  %1 = getelementptr inbounds i8, ptr %call3, i64 16
  tail call void @llvm.memset.p0.i64(ptr noundef nonnull align 8 dereferenceable(56) %1, i8 0, i64 40, i1 false)
  store ptr getelementptr inbounds ({ [4 x ptr] }, ptr @_ZTVN6icu_7513AndConstraintE, i64 0, i32 0, i64 2), ptr %call3, align 8
  %op.i = getelementptr inbounds i8, ptr %call3, i64 8
  store i32 0, ptr %op.i, align 8
  %opNum.i = getelementptr inbounds i8, ptr %call3, i64 12
  store i32 -1, ptr %opNum.i, align 4
  %value.i = getelementptr inbounds i8, ptr %call3, i64 16
  store i32 -1, ptr %value.i, align 8
  %negated.i = getelementptr inbounds i8, ptr %call3, i64 32
  store i8 0, ptr %negated.i, align 8
  %digitsType.i = getelementptr inbounds i8, ptr %call3, i64 36
  tail call void @llvm.memset.p0.i64(ptr noundef nonnull align 4 dereferenceable(16) %digitsType.i, i8 0, i64 16, i1 false)
  %next = getelementptr inbounds i8, ptr %this, i64 40
  store ptr %call3, ptr %next, align 8
  br label %return

if.then5:                                         ; preds = %if.end
  %next2 = getelementptr inbounds i8, ptr %this, i64 40
  store ptr null, ptr %next2, align 8
  store i32 7, ptr %status, align 4
  %.pre = load ptr, ptr %next2, align 8
  br label %return

return:                                           ; preds = %if.then5, %new.cont, %if.then
  %retval.0 = phi ptr [ null, %if.then ], [ %.pre, %if.then5 ], [ %call3, %new.cont ]
  ret ptr %retval.0
}